target datalayout = "e-m:e-p270:32:32-p271:32:32-p272:64:64-i64:64-i128:128-f80:128-n8:16:32:64-S128"
target triple = "x86_64-pc-linux-gnu"

; Function Attrs: nounwind uwtable
define internal i32 @ExtraCostCombined_C(ptr noundef %0, ptr noundef %1, i32 noundef %2) #0 {
  %4 = alloca ptr, align 8
  %5 = alloca ptr, align 8
  %6 = alloca i32, align 4
  %7 = alloca i32, align 4
  %8 = alloca i32, align 4
  %9 = alloca i32, align 4
  %10 = alloca i32, align 4
  store ptr %0, ptr %4, align 8
  store ptr %1, ptr %5, align 8
  store i32 %2, ptr %6, align 4
  %11 = load ptr, ptr %4, align 8
  %12 = getelementptr inbounds i32, ptr %11, i64 4
  %13 = load i32, ptr %12, align 4
  %14 = load ptr, ptr %5, align 8
  %15 = getelementptr inbounds i32, ptr %14, i64 4
  %16 = load i32, ptr %15, align 4
  %17 = add i32 %13, %16
  %18 = load ptr, ptr %4, align 8
  %19 = getelementptr inbounds i32, ptr %18, i64 5
  %20 = load i32, ptr %19, align 4
  %21 = add i32 %17, %20
  %22 = load ptr, ptr %5, align 8
  %23 = getelementptr inbounds i32, ptr %22, i64 5
  %24 = load i32, ptr %23, align 4
  %25 = add i32 %21, %24
  store i32 %25, ptr %8, align 4
  store i32 2, ptr %7, align 4
  br label %26

26:                                               ; preds = %70, %3
  %27 = load i32, ptr %7, align 4
  %28 = load i32, ptr %6, align 4
  %29 = sdiv i32 %28, 2
  %30 = sub nsw i32 %29, 1
  %31 = icmp slt i32 %27, %30
  br i1 %31, label %32, label %73

32:                                               ; preds = %26
  %33 = load ptr, ptr %4, align 8
  %34 = load i32, ptr %7, align 4
  %35 = mul nsw i32 2, %34
  %36 = add nsw i32 %35, 2
  %37 = sext i32 %36 to i64
  %38 = getelementptr inbounds i32, ptr %33, i64 %37
  %39 = load i32, ptr %38, align 4
  %40 = load ptr, ptr %5, align 8
  %41 = load i32, ptr %7, align 4
  %42 = mul nsw i32 2, %41
  %43 = add nsw i32 %42, 2
  %44 = sext i32 %43 to i64
  %45 = getelementptr inbounds i32, ptr %40, i64 %44
  %46 = load i32, ptr %45, align 4
  %47 = add i32 %39, %46
  store i32 %47, ptr %9, align 4
  %48 = load ptr, ptr %4, align 8
  %49 = load i32, ptr %7, align 4
  %50 = mul nsw i32 2, %49
  %51 = add nsw i32 %50, 3
  %52 = sext i32 %51 to i64
  %53 = getelementptr inbounds i32, ptr %48, i64 %52
  %54 = load i32, ptr %53, align 4
  %55 = load ptr, ptr %5, align 8
  %56 = load i32, ptr %7, align 4
  %57 = mul nsw i32 2, %56
  %58 = add nsw i32 %57, 3
  %59 = sext i32 %58 to i64
  %60 = getelementptr inbounds i32, ptr %55, i64 %59
  %61 = load i32, ptr %60, align 4
  %62 = add i32 %54, %61
  store i32 %62, ptr %10, align 4
  %63 = load i32, ptr %7, align 4
  %64 = load i32, ptr %9, align 4
  %65 = load i32, ptr %10, align 4
  %66 = add nsw i32 %64, %65
  %67 = mul nsw i32 %63, %66
  %68 = load i32, ptr %8, align 4
  %69 = add i32 %68, %67
  store i32 %69, ptr %8, align 4
  br label %70

70:                                               ; preds = %32
  %71 = load i32, ptr %7, align 4
  %72 = add nsw i32 %71, 1
  store i32 %72, ptr %7, align 4
  br label %26, !llvm.loop !17

73:                                               ; preds = %26
  %74 = load i32, ptr %8, align 4
  ret i32 %74
}