; Function Attrs: nofree norecurse nosync nounwind memory(argmem: read) uwtable
define internal i32 @ExtraCostCombined_C(ptr nocapture noundef readonly %0, ptr nocapture noundef readonly %1, i32 noundef %2) #9 {
  %4 = getelementptr inbounds i8, ptr %0, i64 16
  %5 = load i32, ptr %4, align 4
  %6 = getelementptr inbounds i8, ptr %1, i64 16
  %7 = load i32, ptr %6, align 4
  %8 = add i32 %7, %5
  %9 = getelementptr inbounds i8, ptr %0, i64 20
  %10 = load i32, ptr %9, align 4
  %11 = add i32 %8, %10
  %12 = getelementptr inbounds i8, ptr %1, i64 20
  %13 = load i32, ptr %12, align 4
  %14 = add i32 %11, %13
  %15 = icmp sgt i32 %2, 7
  br i1 %15, label %.lr.ph.preheader, label %._crit_edge

.lr.ph.preheader:                                 ; preds = %3
  %16 = lshr i32 %2, 1
  %smax = add nsw i32 %16, -1
  %wide.trip.count = zext nneg i32 %smax to i64
  br label %.lr.ph

.lr.ph:                                           ; preds = %.lr.ph.preheader, %.lr.ph
  %indvars.iv = phi i64 [ 2, %.lr.ph.preheader ], [ %indvars.iv.next, %.lr.ph ]
  %.01920 = phi i32 [ %14, %.lr.ph.preheader ], [ %33, %.lr.ph ]
  %17 = shl nuw nsw i64 %indvars.iv, 1
  %18 = add nuw nsw i64 %17, 2
  %19 = getelementptr inbounds i32, ptr %0, i64 %18
  %20 = load i32, ptr %19, align 4
  %21 = getelementptr inbounds i32, ptr %1, i64 %18
  %22 = load i32, ptr %21, align 4
  %23 = add nuw nsw i64 %17, 3
  %24 = getelementptr inbounds i32, ptr %0, i64 %23
  %25 = load i32, ptr %24, align 4
  %26 = getelementptr inbounds i32, ptr %1, i64 %23
  %27 = load i32, ptr %26, align 4
  %28 = add i32 %22, %20
  %29 = add i32 %28, %25
  %30 = add i32 %29, %27
  %31 = trunc nuw nsw i64 %indvars.iv to i32
  %32 = mul nsw i32 %30, %31
  %33 = add i32 %32, %.01920
  %indvars.iv.next = add nuw nsw i64 %indvars.iv, 1
  %exitcond.not = icmp eq i64 %indvars.iv.next, %wide.trip.count
  br i1 %exitcond.not, label %._crit_edge, label %.lr.ph, !llvm.loop !17

._crit_edge:                                      ; preds = %.lr.ph, %3
  %.019.lcssa = phi i32 [ %14, %3 ], [ %33, %.lr.ph ]
  ret i32 %.019.lcssa
}